target datalayout = "e-m:e-p270:32:32-p271:32:32-p272:64:64-i64:64-i128:128-f80:128-n8:16:32:64-S128"
target triple = "x86_64-pc-linux-gnu"

%"class.llvm::ArrayRef.212" = type { ptr, i64 }
%struct.InstrProfValueData = type { i64, i64 }
%"struct.llvm::ValueProfRecord" = type { i32, i32, [1 x i8] }
%"struct.llvm::ValueProfData" = type { i32, i32 }

; Function Attrs: mustprogress nounwind uwtable
define linkonce_odr hidden noundef i32 @_ZN4llvm28getValueProfRecordHeaderSizeEj(i32 noundef %0) #1 comdat {
  %2 = alloca i32, align 4
  %3 = alloca i32, align 4
  store i32 %0, ptr %2, align 4
  %4 = load i32, ptr %2, align 4
  %5 = zext i32 %4 to i64
  %6 = mul i64 1, %5
  %7 = add i64 8, %6
  %8 = trunc i64 %7 to i32
  store i32 %8, ptr %3, align 4
  %9 = load i32, ptr %3, align 4
  %10 = add i32 %9, 7
  %11 = and i32 %10, -8
  store i32 %11, ptr %3, align 4
  %12 = load i32, ptr %3, align 4
  ret i32 %12
}

; Function Attrs: mustprogress nounwind uwtable
define linkonce_odr hidden noundef i32 @_ZN4llvm22getValueProfRecordSizeEjj(i32 noundef %0, i32 noundef %1) #1 comdat {
  %3 = alloca i32, align 4
  %4 = alloca i32, align 4
  store i32 %0, ptr %3, align 4
  store i32 %1, ptr %4, align 4
  %5 = load i32, ptr %3, align 4
  %6 = call noundef i32 @_ZN4llvm28getValueProfRecordHeaderSizeEj(i32 noundef %5)
  %7 = zext i32 %6 to i64
  %8 = load i32, ptr %4, align 4
  %9 = zext i32 %8 to i64
  %10 = mul i64 16, %9
  %11 = add i64 %7, %10
  %12 = trunc i64 %11 to i32
  ret i32 %12
}

; Function Attrs: mustprogress nounwind uwtable
define linkonce_odr hidden noundef i32 @_ZN4llvm30getValueProfRecordNumValueDataEPNS_15ValueProfRecordE(ptr noundef %0) #1 comdat {
  %2 = alloca ptr, align 8
  %3 = alloca i32, align 4
  %4 = alloca i32, align 4
  store ptr %0, ptr %2, align 8
  store i32 0, ptr %3, align 4
  store i32 0, ptr %4, align 4
  br label %5

5:                                                ; preds = %21, %1
  %6 = load i32, ptr %4, align 4
  %7 = load ptr, ptr %2, align 8
  %8 = getelementptr inbounds nuw %"struct.llvm::ValueProfRecord", ptr %7, i32 0, i32 1
  %9 = load i32, ptr %8, align 4
  %10 = icmp ult i32 %6, %9
  br i1 %10, label %11, label %24

11:                                               ; preds = %5
  %12 = load ptr, ptr %2, align 8
  %13 = getelementptr inbounds nuw %"struct.llvm::ValueProfRecord", ptr %12, i32 0, i32 2
  %14 = load i32, ptr %4, align 4
  %15 = zext i32 %14 to i64
  %16 = getelementptr inbounds [1 x i8], ptr %13, i64 0, i64 %15
  %17 = load i8, ptr %16, align 1
  %18 = zext i8 %17 to i32
  %19 = load i32, ptr %3, align 4
  %20 = add i32 %19, %18
  store i32 %20, ptr %3, align 4
  br label %21

21:                                               ; preds = %11
  %22 = load i32, ptr %4, align 4
  %23 = add i32 %22, 1
  store i32 %23, ptr %4, align 4
  br label %5, !llvm.loop !35

24:                                               ; preds = %5
  %25 = load i32, ptr %3, align 4
  ret i32 %25
}

; Function Attrs: mustprogress nounwind uwtable
define linkonce_odr hidden void @_ZN4llvm8ArrayRefI18InstrProfValueDataEC2EPKS1_m(ptr noundef nonnull align 8 dereferenceable(16) %0, ptr noundef %1, i64 noundef %2) unnamed_addr #1 comdat align 2 {
  %4 = alloca ptr, align 8
  %5 = alloca ptr, align 8
  %6 = alloca i64, align 8
  store ptr %0, ptr %4, align 8
  store ptr %1, ptr %5, align 8
  store i64 %2, ptr %6, align 8
  %7 = load ptr, ptr %4, align 8
  %8 = getelementptr inbounds nuw %"class.llvm::ArrayRef.212", ptr %7, i32 0, i32 0
  %9 = load ptr, ptr %5, align 8
  store ptr %9, ptr %8, align 8
  %10 = getelementptr inbounds nuw %"class.llvm::ArrayRef.212", ptr %7, i32 0, i32 1
  %11 = load i64, ptr %6, align 8
  store i64 %11, ptr %10, align 8
  ret void
}

; Function Attrs: mustprogress nounwind uwtable
define linkonce_odr hidden noundef ptr @_ZN4llvm27getValueProfRecordValueDataEPNS_15ValueProfRecordE(ptr noundef %0) #1 comdat {
  %2 = alloca ptr, align 8
  store ptr %0, ptr %2, align 8
  %3 = load ptr, ptr %2, align 8
  %4 = load ptr, ptr %2, align 8
  %5 = getelementptr inbounds nuw %"struct.llvm::ValueProfRecord", ptr %4, i32 0, i32 1
  %6 = load i32, ptr %5, align 4
  %7 = call noundef i32 @_ZN4llvm28getValueProfRecordHeaderSizeEj(i32 noundef %6)
  %8 = zext i32 %7 to i64
  %9 = getelementptr inbounds i8, ptr %3, i64 %8
  ret ptr %9
}

; Function Attrs: mustprogress nounwind uwtable
define linkonce_odr hidden noundef ptr @_ZN4llvm22getValueProfRecordNextEPNS_15ValueProfRecordE(ptr noundef %0) #1 comdat {
  %2 = alloca ptr, align 8
  %3 = alloca i32, align 4
  store ptr %0, ptr %2, align 8
  %4 = load ptr, ptr %2, align 8
  %5 = call noundef i32 @_ZN4llvm30getValueProfRecordNumValueDataEPNS_15ValueProfRecordE(ptr noundef %4)
  store i32 %5, ptr %3, align 4
  %6 = load ptr, ptr %2, align 8
  %7 = load ptr, ptr %2, align 8
  %8 = getelementptr inbounds nuw %"struct.llvm::ValueProfRecord", ptr %7, i32 0, i32 1
  %9 = load i32, ptr %8, align 4
  %10 = load i32, ptr %3, align 4
  %11 = call noundef i32 @_ZN4llvm22getValueProfRecordSizeEjj(i32 noundef %9, i32 noundef %10)
  %12 = zext i32 %11 to i64
  %13 = getelementptr inbounds i8, ptr %6, i64 %12
  ret ptr %13
}

; Function Attrs: mustprogress nounwind uwtable
define dso_local void @_ZN4llvm15ValueProfRecord13deserializeToERNS_15InstrProfRecordEPNS_15InstrProfSymtabE(ptr noundef nonnull align 4 dereferenceable(12) %0, ptr noundef nonnull align 8 dereferenceable(56) %1, ptr noundef %2) #1 align 2 {
  %4 = alloca ptr, align 8
  %5 = alloca ptr, align 8
  %6 = alloca ptr, align 8
  %7 = alloca ptr, align 8
  %8 = alloca i64, align 8
  %9 = alloca i8, align 1
  %10 = alloca %"class.llvm::ArrayRef.212", align 8
  %11 = alloca %"class.llvm::ArrayRef.212", align 8
  store ptr %0, ptr %4, align 8
  store ptr %1, ptr %5, align 8
  store ptr %2, ptr %6, align 8
  %12 = load ptr, ptr %4, align 8
  %13 = load ptr, ptr %5, align 8
  %14 = getelementptr inbounds nuw %"struct.llvm::ValueProfRecord", ptr %12, i32 0, i32 0
  %15 = load i32, ptr %14, align 4
  %16 = getelementptr inbounds nuw %"struct.llvm::ValueProfRecord", ptr %12, i32 0, i32 1
  %17 = load i32, ptr %16, align 4
  call void @_ZN4llvm15InstrProfRecord12reserveSitesEjj(ptr noundef nonnull align 8 dereferenceable(56) %13, i32 noundef %15, i32 noundef %17)
  %18 = call noundef ptr @_ZN4llvm27getValueProfRecordValueDataEPNS_15ValueProfRecordE(ptr noundef %12)
  store ptr %18, ptr %7, align 8
  store i64 0, ptr %8, align 8
  br label %19

19:                                               ; preds = %48, %3
  %20 = load i64, ptr %8, align 8
  %21 = getelementptr inbounds nuw %"struct.llvm::ValueProfRecord", ptr %12, i32 0, i32 1
  %22 = load i32, ptr %21, align 4
  %23 = zext i32 %22 to i64
  %24 = icmp ult i64 %20, %23
  br i1 %24, label %25, label %51

25:                                               ; preds = %19
  %26 = getelementptr inbounds nuw %"struct.llvm::ValueProfRecord", ptr %12, i32 0, i32 2
  %27 = load i64, ptr %8, align 8
  %28 = getelementptr inbounds [1 x i8], ptr %26, i64 0, i64 %27
  %29 = load i8, ptr %28, align 1
  store i8 %29, ptr %9, align 1
  %30 = load ptr, ptr %7, align 8
  %31 = load i8, ptr %9, align 1
  %32 = zext i8 %31 to i64
  call void @_ZN4llvm8ArrayRefI18InstrProfValueDataEC2EPKS1_m(ptr noundef nonnull align 8 dereferenceable(16) %10, ptr noundef %30, i64 noundef %32)
  %33 = load ptr, ptr %5, align 8
  %34 = getelementptr inbounds nuw %"struct.llvm::ValueProfRecord", ptr %12, i32 0, i32 0
  %35 = load i32, ptr %34, align 4
  %36 = load i64, ptr %8, align 8
  %37 = trunc i64 %36 to i32
  call void @llvm.memcpy.p0.p0.i64(ptr align 8 %11, ptr align 8 %10, i64 16, i1 false)
  %38 = load ptr, ptr %6, align 8
  %39 = getelementptr inbounds nuw { ptr, i64 }, ptr %11, i32 0, i32 0
  %40 = load ptr, ptr %39, align 8
  %41 = getelementptr inbounds nuw { ptr, i64 }, ptr %11, i32 0, i32 1
  %42 = load i64, ptr %41, align 8
  call void @_ZN4llvm15InstrProfRecord12addValueDataEjjNS_8ArrayRefI18InstrProfValueDataEEPNS_15InstrProfSymtabE(ptr noundef nonnull align 8 dereferenceable(56) %33, i32 noundef %35, i32 noundef %37, ptr %40, i64 %42, ptr noundef %38)
  %43 = load i8, ptr %9, align 1
  %44 = zext i8 %43 to i32
  %45 = load ptr, ptr %7, align 8
  %46 = sext i32 %44 to i64
  %47 = getelementptr inbounds %struct.InstrProfValueData, ptr %45, i64 %46
  store ptr %47, ptr %7, align 8
  br label %48

48:                                               ; preds = %25
  %49 = load i64, ptr %8, align 8
  %50 = add i64 %49, 1
  store i64 %50, ptr %8, align 8
  br label %19, !llvm.loop !33

51:                                               ; preds = %19
  ret void
}

; Function Attrs: mustprogress nounwind uwtable
define linkonce_odr hidden noundef ptr @_ZN4llvm23getFirstValueProfRecordEPNS_13ValueProfDataE(ptr noundef %0) #1 comdat {
  %2 = alloca ptr, align 8
  store ptr %0, ptr %2, align 8
  %3 = load ptr, ptr %2, align 8
  %4 = getelementptr inbounds i8, ptr %3, i64 8
  ret ptr %4
}

; Function Attrs: mustprogress nounwind uwtable
define dso_local void @_ZN4llvm13ValueProfData13deserializeToERNS_15InstrProfRecordEPNS_15InstrProfSymtabE(ptr noundef nonnull align 4 dereferenceable(8) %0, ptr noundef nonnull align 8 dereferenceable(56) %1, ptr noundef %2) #1 align 2 {
  %4 = alloca ptr, align 8
  %5 = alloca ptr, align 8
  %6 = alloca ptr, align 8
  %7 = alloca ptr, align 8
  %8 = alloca i32, align 4
  store ptr %0, ptr %4, align 8
  store ptr %1, ptr %5, align 8
  store ptr %2, ptr %6, align 8
  %9 = load ptr, ptr %4, align 8
  %10 = getelementptr inbounds nuw %"struct.llvm::ValueProfData", ptr %9, i32 0, i32 1
  %11 = load i32, ptr %10, align 4
  %12 = icmp eq i32 %11, 0
  br i1 %12, label %13, label %14

13:                                               ; preds = %3
  br label %30

14:                                               ; preds = %3
  %15 = call noundef ptr @_ZN4llvm23getFirstValueProfRecordEPNS_13ValueProfDataE(ptr noundef %9)
  store ptr %15, ptr %7, align 8
  store i32 0, ptr %8, align 4
  br label %16

16:                                               ; preds = %27, %14
  %17 = load i32, ptr %8, align 4
  %18 = getelementptr inbounds nuw %"struct.llvm::ValueProfData", ptr %9, i32 0, i32 1
  %19 = load i32, ptr %18, align 4
  %20 = icmp ult i32 %17, %19
  br i1 %20, label %21, label %30

21:                                               ; preds = %16
  %22 = load ptr, ptr %7, align 8
  %23 = load ptr, ptr %5, align 8
  %24 = load ptr, ptr %6, align 8
  call void @_ZN4llvm15ValueProfRecord13deserializeToERNS_15InstrProfRecordEPNS_15InstrProfSymtabE(ptr noundef nonnull align 4 dereferenceable(12) %22, ptr noundef nonnull align 8 dereferenceable(56) %23, ptr noundef %24)
  %25 = load ptr, ptr %7, align 8
  %26 = call noundef ptr @_ZN4llvm22getValueProfRecordNextEPNS_15ValueProfRecordE(ptr noundef %25)
  store ptr %26, ptr %7, align 8
  br label %27

27:                                               ; preds = %21
  %28 = load i32, ptr %8, align 4
  %29 = add i32 %28, 1
  store i32 %29, ptr %8, align 4
  br label %16, !llvm.loop !36

30:                                               ; preds = %16, %13
  ret void
}