; Function Attrs: mustprogress nounwind uwtable
define dso_local void @_ZN4llvm13ValueProfData13deserializeToERNS_15InstrProfRecordEPNS_15InstrProfSymtabE(ptr noundef nonnull align 4 dereferenceable(8) %0, ptr noundef nonnull align 8 dereferenceable(56) %1, ptr noundef %2) local_unnamed_addr #0 align 2 {
  %4 = getelementptr inbounds nuw i8, ptr %0, i64 4
  %5 = load i32, ptr %4, align 4
  %.not = icmp eq i32 %5, 0
  br i1 %.not, label %.loopexit, label %.lr.ph.preheader

.lr.ph.preheader:                                 ; preds = %3
  %6 = getelementptr inbounds nuw i8, ptr %0, i64 8
  br label %.lr.ph

.lr.ph:                                           ; preds = %.lr.ph.preheader, %_ZN4llvm22getValueProfRecordNextEPNS_15ValueProfRecordE.exit
  %.010 = phi i32 [ %37, %_ZN4llvm22getValueProfRecordNextEPNS_15ValueProfRecordE.exit ], [ 0, %.lr.ph.preheader ]
  %.069 = phi ptr [ %36, %_ZN4llvm22getValueProfRecordNextEPNS_15ValueProfRecordE.exit ], [ %6, %.lr.ph.preheader ]
  %7 = load i32, ptr %.069, align 4
  %8 = getelementptr inbounds nuw i8, ptr %.069, i64 4
  %9 = load i32, ptr %8, align 4
  tail call void @_ZN4llvm15InstrProfRecord12reserveSitesEjj(ptr noundef nonnull align 8 dereferenceable(56) %1, i32 noundef %7, i32 noundef %9)
  %10 = load i32, ptr %8, align 4
  %.not.i = icmp eq i32 %10, 0
  br i1 %.not.i, label %_ZN4llvm22getValueProfRecordNextEPNS_15ValueProfRecordE.exit, label %.lr.ph.i

.lr.ph.i:                                         ; preds = %.lr.ph
  %11 = add i32 %10, 15
  %12 = and i32 %11, -8
  %13 = zext i32 %12 to i64
  %14 = getelementptr inbounds nuw i8, ptr %.069, i64 %13
  %15 = getelementptr inbounds nuw i8, ptr %.069, i64 8
  br label %16

16:                                               ; preds = %16, %.lr.ph.i
  %.013.i = phi ptr [ %14, %.lr.ph.i ], [ %21, %16 ]
  %.01112.i = phi i64 [ 0, %.lr.ph.i ], [ %22, %16 ]
  %17 = getelementptr inbounds nuw [1 x i8], ptr %15, i64 0, i64 %.01112.i
  %18 = load i8, ptr %17, align 1
  %19 = zext i8 %18 to i64
  %20 = load i32, ptr %.069, align 4
  tail call void @_ZN4llvm15InstrProfRecord12addValueDataEjjNS_8ArrayRefI18InstrProfValueDataEEPNS_15InstrProfSymtabE(ptr noundef nonnull align 8 dereferenceable(56) %1, i32 noundef %20, i32 poison, ptr %.013.i, i64 %19, ptr noundef %2)
  %21 = getelementptr inbounds nuw %struct.InstrProfValueData, ptr %.013.i, i64 %19
  %22 = add nuw nsw i64 %.01112.i, 1
  %23 = load i32, ptr %8, align 4
  %24 = zext i32 %23 to i64
  %25 = icmp samesign ult i64 %22, %24
  br i1 %25, label %16, label %_ZN4llvm15ValueProfRecord13deserializeToERNS_15InstrProfRecordEPNS_15InstrProfSymtabE.exit, !llvm.loop !148

_ZN4llvm15ValueProfRecord13deserializeToERNS_15InstrProfRecordEPNS_15InstrProfSymtabE.exit: ; preds = %16
  %.not.i.i = icmp eq i32 %23, 0
  br i1 %.not.i.i, label %_ZN4llvm22getValueProfRecordNextEPNS_15ValueProfRecordE.exit, label %.lr.ph.i.i

.lr.ph.i.i:                                       ; preds = %_ZN4llvm15ValueProfRecord13deserializeToERNS_15InstrProfRecordEPNS_15InstrProfSymtabE.exit, %.lr.ph.i.i
  %indvars.iv.i.i = phi i64 [ %indvars.iv.next.i.i, %.lr.ph.i.i ], [ 0, %_ZN4llvm15ValueProfRecord13deserializeToERNS_15InstrProfRecordEPNS_15InstrProfSymtabE.exit ]
  %.067.i.i = phi i32 [ %29, %.lr.ph.i.i ], [ 0, %_ZN4llvm15ValueProfRecord13deserializeToERNS_15InstrProfRecordEPNS_15InstrProfSymtabE.exit ]
  %26 = getelementptr inbounds nuw [1 x i8], ptr %15, i64 0, i64 %indvars.iv.i.i
  %27 = load i8, ptr %26, align 1
  %28 = zext i8 %27 to i32
  %29 = add i32 %.067.i.i, %28
  %indvars.iv.next.i.i = add nuw nsw i64 %indvars.iv.i.i, 1
  %exitcond.not.i.i = icmp eq i64 %indvars.iv.next.i.i, %24
  br i1 %exitcond.not.i.i, label %_ZN4llvm30getValueProfRecordNumValueDataEPNS_15ValueProfRecordE.exit.loopexit.i, label %.lr.ph.i.i, !llvm.loop !144

_ZN4llvm30getValueProfRecordNumValueDataEPNS_15ValueProfRecordE.exit.loopexit.i: ; preds = %.lr.ph.i.i
  %30 = shl i32 %29, 4
  %31 = add i32 %23, 15
  %32 = and i32 %31, -8
  br label %_ZN4llvm22getValueProfRecordNextEPNS_15ValueProfRecordE.exit

_ZN4llvm22getValueProfRecordNextEPNS_15ValueProfRecordE.exit: ; preds = %.lr.ph, %_ZN4llvm15ValueProfRecord13deserializeToERNS_15InstrProfRecordEPNS_15InstrProfSymtabE.exit, %_ZN4llvm30getValueProfRecordNumValueDataEPNS_15ValueProfRecordE.exit.loopexit.i
  %33 = phi i32 [ 8, %_ZN4llvm15ValueProfRecord13deserializeToERNS_15InstrProfRecordEPNS_15InstrProfSymtabE.exit ], [ %32, %_ZN4llvm30getValueProfRecordNumValueDataEPNS_15ValueProfRecordE.exit.loopexit.i ], [ 8, %.lr.ph ]
  %.06.lcssa.i.i = phi i32 [ 0, %_ZN4llvm15ValueProfRecord13deserializeToERNS_15InstrProfRecordEPNS_15InstrProfSymtabE.exit ], [ %30, %_ZN4llvm30getValueProfRecordNumValueDataEPNS_15ValueProfRecordE.exit.loopexit.i ], [ 0, %.lr.ph ]
  %34 = add i32 %.06.lcssa.i.i, %33
  %35 = zext i32 %34 to i64
  %36 = getelementptr inbounds nuw i8, ptr %.069, i64 %35
  %37 = add nuw i32 %.010, 1
  %38 = load i32, ptr %4, align 4
  %39 = icmp ult i32 %37, %38
  br i1 %39, label %.lr.ph, label %.loopexit, !llvm.loop !159

.loopexit:                                        ; preds = %_ZN4llvm22getValueProfRecordNextEPNS_15ValueProfRecordE.exit, %3
  ret void
}